target datalayout = "e-m:e-p270:32:32-p271:32:32-p272:64:64-i64:64-i128:128-f80:128-n8:16:32:64-S128"
target triple = "x86_64-pc-linux-gnu"

%struct.settings = type { i64, i32, i32, i32, ptr, i32, i32, i32, ptr, ptr, i32, double, i32, i32, i32, i8, i32, i32, i8, i32, i32, i32, i32, i32, i32, i8, i8, i8, i8, i8, i8, i8, i32, i32, double, double, i32, i32, i8, i32, i8, i8, ptr, i32, i32, i32, i32, double, double, i32, i8, i32, i32, i32, i32, i32, i8, i8, i8, ptr, i32, i32, i32, i32, i32, i32, i32, i32, i32, i32, double, i8, i32, i32, ptr, i32 }
%struct.conn = type { ptr, i32, i8, i8, i8, i8, i8, i8, i8, i8, ptr, i32, i32, i32, %struct.event, i16, i16, ptr, ptr, i32, i32, ptr, ptr, ptr, i32, ptr, i32, i32, i32, i32, i32, i32, i32, %struct.sockaddr_in6, i32, i8, %struct.anon.8, %union.protocol_binary_request_header, i64, i64, i16, i32, i32, ptr, ptr, ptr, ptr, ptr, ptr }
%struct.event = type { %struct.event_callback, %union.anon.0, i32, ptr, %union.anon.2, i16, i16, %struct.timeval }
%struct.event_callback = type { %struct.anon, i16, i8, i8, %union.anon, ptr }
%struct.anon = type { ptr, ptr }
%union.anon = type { ptr }
%union.anon.0 = type { %struct.anon.1 }
%struct.anon.1 = type { ptr, ptr }
%union.anon.2 = type { %struct.anon.3 }
%struct.anon.3 = type { %struct.anon.4, %struct.timeval }
%struct.anon.4 = type { ptr, ptr }
%struct.timeval = type { i64, i64 }
%struct.sockaddr_in6 = type { i16, i16, i32, %struct.in6_addr, i32 }
%struct.in6_addr = type { %union.anon.7 }
%union.anon.7 = type { [4 x i32] }
%struct.anon.8 = type { ptr, i64, i64 }
%union.protocol_binary_request_header = type { %struct.anon.9 }
%struct.anon.9 = type { i8, i8, i16, i8, i8, i16, i32, i32, i64 }
%struct.LIBEVENT_THREAD = type { i64, ptr, %struct.thread_notify, %struct.thread_notify, %union.pthread_mutex_t, %struct.iop_head_s, i32, i32, i32, %struct.thread_stats, [3 x %struct.io_queue_s], ptr, ptr, ptr, ptr, ptr, ptr, ptr, i32 }
%struct.thread_notify = type { %struct.event, i32 }
%union.pthread_mutex_t = type { %struct.__pthread_mutex_s }
%struct.__pthread_mutex_s = type { i32, i32, i32, i32, i32, i16, i16, %struct.__pthread_internal_list }
%struct.__pthread_internal_list = type { ptr, ptr }
%struct.iop_head_s = type { ptr, ptr }
%struct.thread_stats = type { %union.pthread_mutex_t, i64, i64, i64, i64, i64, i64, i64, i64, i64, i64, i64, i64, i64, i64, i64, i64, i64, i64, i64, i64, i64, i64, i64, i64, i64, i64, i64, i64, i64, i64, [64 x %struct.slab_stats], [256 x i64], i64, i64, i64 }
%struct.slab_stats = type { i64, i64, i64, i64, i64, i64, i64, i64 }
%struct.io_queue_s = type { ptr, %struct.iop_head_s, ptr, i32 }
%struct.token_s = type { ptr, i64 }

@current_time = external global i32, align 4
@settings = external global %struct.settings, align 8
@.str.77 = private unnamed_addr constant [38 x i8] c"CLIENT_ERROR invalid exptime argument\00", align 1
@.str.85 = private unnamed_addr constant [8 x i8] c"noreply\00", align 1
@.str.98 = private unnamed_addr constant [3 x i8] c"OK\00", align 1
@.str.131 = private unnamed_addr constant [35 x i8] c"CLIENT_ERROR flush_all not allowed\00", align 1

; Function Attrs: inlinehint nounwind uwtable
define internal zeroext i1 @set_noreply_maybe(ptr noundef %0, ptr noundef %1, i64 noundef %2) #5 {
  %4 = alloca ptr, align 8
  %5 = alloca ptr, align 8
  %6 = alloca i64, align 8
  %7 = alloca i32, align 4
  store ptr %0, ptr %4, align 8, !tbaa !4
  store ptr %1, ptr %5, align 8, !tbaa !77
  store i64 %2, ptr %6, align 8, !tbaa !44
  call void @llvm.lifetime.start.p0(i64 4, ptr %7) #8
  %8 = load i64, ptr %6, align 8, !tbaa !44
  %9 = sub i64 %8, 2
  %10 = trunc i64 %9 to i32
  store i32 %10, ptr %7, align 4, !tbaa !30
  %11 = load ptr, ptr %5, align 8, !tbaa !77
  %12 = load i32, ptr %7, align 4, !tbaa !30
  %13 = sext i32 %12 to i64
  %14 = getelementptr inbounds %struct.token_s, ptr %11, i64 %13
  %15 = getelementptr inbounds nuw %struct.token_s, ptr %14, i32 0, i32 0
  %16 = load ptr, ptr %15, align 8, !tbaa !70
  %17 = icmp ne ptr %16, null
  br i1 %17, label %18, label %30

18:                                               ; preds = %3
  %19 = load ptr, ptr %5, align 8, !tbaa !77
  %20 = load i32, ptr %7, align 4, !tbaa !30
  %21 = sext i32 %20 to i64
  %22 = getelementptr inbounds %struct.token_s, ptr %19, i64 %21
  %23 = getelementptr inbounds nuw %struct.token_s, ptr %22, i32 0, i32 0
  %24 = load ptr, ptr %23, align 8, !tbaa !70
  %25 = call i32 @strcmp(ptr noundef %24, ptr noundef @.str.85) #9
  %26 = icmp eq i32 %25, 0
  br i1 %26, label %27, label %30

27:                                               ; preds = %18
  %28 = load ptr, ptr %4, align 8, !tbaa !4
  %29 = getelementptr inbounds nuw %struct.conn, ptr %28, i32 0, i32 35
  store i8 1, ptr %29, align 4, !tbaa !43
  br label %30

30:                                               ; preds = %27, %18, %3
  %31 = load ptr, ptr %4, align 8, !tbaa !4
  %32 = getelementptr inbounds nuw %struct.conn, ptr %31, i32 0, i32 35
  %33 = load i8, ptr %32, align 4, !tbaa !43, !range !40, !noundef !41
  %34 = trunc i8 %33 to i1
  call void @llvm.lifetime.end.p0(i64 4, ptr %7) #8
  ret i1 %34
}

; Function Attrs: nounwind uwtable
define internal void @process_flush_all_command(ptr noundef %0, ptr noundef %1, i64 noundef %2) #0 {
  %4 = alloca ptr, align 8
  %5 = alloca ptr, align 8
  %6 = alloca i64, align 8
  %7 = alloca i32, align 4
  %8 = alloca i32, align 4
  %9 = alloca i32, align 4
  store ptr %0, ptr %4, align 8, !tbaa !4
  store ptr %1, ptr %5, align 8, !tbaa !77
  store i64 %2, ptr %6, align 8, !tbaa !44
  call void @llvm.lifetime.start.p0(i64 4, ptr %7) #8
  store i32 0, ptr %7, align 4, !tbaa !30
  call void @llvm.lifetime.start.p0(i64 4, ptr %8) #8
  store i32 0, ptr %8, align 4, !tbaa !30
  %10 = load ptr, ptr %4, align 8, !tbaa !4
  %11 = load ptr, ptr %5, align 8, !tbaa !77
  %12 = load i64, ptr %6, align 8, !tbaa !44
  %13 = call zeroext i1 @set_noreply_maybe(ptr noundef %10, ptr noundef %11, i64 noundef %12)
  %14 = load ptr, ptr %4, align 8, !tbaa !4
  %15 = getelementptr inbounds nuw %struct.conn, ptr %14, i32 0, i32 44
  %16 = load ptr, ptr %15, align 8, !tbaa !32
  %17 = getelementptr inbounds nuw %struct.LIBEVENT_THREAD, ptr %16, i32 0, i32 9
  %18 = getelementptr inbounds nuw %struct.thread_stats, ptr %17, i32 0, i32 0
  %19 = call i32 @pthread_mutex_lock(ptr noundef %18) #8
  %20 = load ptr, ptr %4, align 8, !tbaa !4
  %21 = getelementptr inbounds nuw %struct.conn, ptr %20, i32 0, i32 44
  %22 = load ptr, ptr %21, align 8, !tbaa !32
  %23 = getelementptr inbounds nuw %struct.LIBEVENT_THREAD, ptr %22, i32 0, i32 9
  %24 = getelementptr inbounds nuw %struct.thread_stats, ptr %23, i32 0, i32 14
  %25 = load i64, ptr %24, align 8, !tbaa !139
  %26 = add i64 %25, 1
  store i64 %26, ptr %24, align 8, !tbaa !139
  %27 = load ptr, ptr %4, align 8, !tbaa !4
  %28 = getelementptr inbounds nuw %struct.conn, ptr %27, i32 0, i32 44
  %29 = load ptr, ptr %28, align 8, !tbaa !32
  %30 = getelementptr inbounds nuw %struct.LIBEVENT_THREAD, ptr %29, i32 0, i32 9
  %31 = getelementptr inbounds nuw %struct.thread_stats, ptr %30, i32 0, i32 0
  %32 = call i32 @pthread_mutex_unlock(ptr noundef %31) #8
  %33 = load i8, ptr getelementptr inbounds nuw (%struct.settings, ptr @settings, i32 0, i32 40), align 8, !tbaa !140, !range !40, !noundef !41
  %34 = trunc i8 %33 to i1
  br i1 %34, label %37, label %35

35:                                               ; preds = %3
  %36 = load ptr, ptr %4, align 8, !tbaa !4
  call void @out_string(ptr noundef %36, ptr noundef @.str.131)
  store i32 1, ptr %9, align 4
  br label %69

37:                                               ; preds = %3
  %38 = load i64, ptr %6, align 8, !tbaa !44
  %39 = load ptr, ptr %4, align 8, !tbaa !4
  %40 = getelementptr inbounds nuw %struct.conn, ptr %39, i32 0, i32 35
  %41 = load i8, ptr %40, align 4, !tbaa !43, !range !40, !noundef !41
  %42 = trunc i8 %41 to i1
  %43 = select i1 %42, i32 3, i32 2
  %44 = sext i32 %43 to i64
  %45 = icmp ne i64 %38, %44
  br i1 %45, label %46, label %55

46:                                               ; preds = %37
  %47 = load ptr, ptr %5, align 8, !tbaa !77
  %48 = getelementptr inbounds %struct.token_s, ptr %47, i64 1
  %49 = getelementptr inbounds nuw %struct.token_s, ptr %48, i32 0, i32 0
  %50 = load ptr, ptr %49, align 8, !tbaa !70
  %51 = call zeroext i1 @safe_strtol(ptr noundef %50, ptr noundef %7)
  br i1 %51, label %54, label %52

52:                                               ; preds = %46
  %53 = load ptr, ptr %4, align 8, !tbaa !4
  call void @out_string(ptr noundef %53, ptr noundef @.str.77)
  store i32 1, ptr %9, align 4
  br label %69

54:                                               ; preds = %46
  br label %55

55:                                               ; preds = %54, %37
  %56 = load i32, ptr %7, align 4, !tbaa !30
  %57 = icmp sgt i32 %56, 0
  br i1 %57, label %58, label %63

58:                                               ; preds = %55
  %59 = load i32, ptr %7, align 4, !tbaa !30
  %60 = sext i32 %59 to i64
  %61 = call i32 @realtime(i64 noundef %60)
  %62 = sub i32 %61, 1
  store i32 %62, ptr %8, align 4, !tbaa !30
  br label %66

63:                                               ; preds = %55
  %64 = load volatile i32, ptr @current_time, align 4, !tbaa !30
  %65 = sub i32 %64, 1
  store i32 %65, ptr %8, align 4, !tbaa !30
  br label %66

66:                                               ; preds = %63, %58
  %67 = load i32, ptr %8, align 4, !tbaa !30
  store i32 %67, ptr getelementptr inbounds nuw (%struct.settings, ptr @settings, i32 0, i32 6), align 4, !tbaa !141
  call void @item_flush_expired()
  %68 = load ptr, ptr %4, align 8, !tbaa !4
  call void @out_string(ptr noundef %68, ptr noundef @.str.98)
  store i32 0, ptr %9, align 4
  br label %69

69:                                               ; preds = %66, %52, %35
  call void @llvm.lifetime.end.p0(i64 4, ptr %8) #8
  call void @llvm.lifetime.end.p0(i64 4, ptr %7) #8
  %70 = load i32, ptr %9, align 4
  switch i32 %70, label %72 [
    i32 0, label %71
    i32 1, label %71
  ]

71:                                               ; preds = %69, %69
  ret void

72:                                               ; preds = %69
  unreachable
}