; Function Attrs: nounwind uwtable
define internal fastcc void @process_flush_all_command(ptr noundef %0, ptr noundef nonnull readonly captures(none) %1, i64 noundef range(i64 2, 5) %2) unnamed_addr #0 {
  %4 = alloca i32, align 4
  call void @llvm.lifetime.start.p0(i64 4, ptr nonnull %4) #13
  store i32 0, ptr %4, align 4, !tbaa !27
  %5 = shl nuw nsw i64 %2, 32
  %sext.i = add nsw i64 %5, -8589934592
  %6 = lshr exact i64 %sext.i, 28
  %7 = getelementptr inbounds nuw i8, ptr %1, i64 %6
  %8 = load ptr, ptr %7, align 8, !tbaa !66
  %.not.i = icmp eq ptr %8, null
  br i1 %.not.i, label %set_noreply_maybe.exit, label %9

9:                                                ; preds = %3
  %10 = tail call i32 @strcmp(ptr noundef nonnull dereferenceable(1) %8, ptr noundef nonnull dereferenceable(8) @.str.85) #14
  %11 = icmp eq i32 %10, 0
  br i1 %11, label %12, label %set_noreply_maybe.exit

12:                                               ; preds = %9
  %13 = getelementptr inbounds nuw i8, ptr %0, i64 308
  store i8 1, ptr %13, align 4, !tbaa !39
  br label %set_noreply_maybe.exit

set_noreply_maybe.exit:                           ; preds = %3, %9, %12
  %14 = getelementptr inbounds nuw i8, ptr %0, i64 400
  %15 = load ptr, ptr %14, align 8, !tbaa !28
  %16 = getelementptr inbounds nuw i8, ptr %15, i64 360
  %17 = tail call i32 @pthread_mutex_lock(ptr noundef nonnull %16) #13
  %18 = load ptr, ptr %14, align 8, !tbaa !28
  %19 = getelementptr inbounds nuw i8, ptr %18, i64 504
  %20 = load i64, ptr %19, align 8, !tbaa !134
  %21 = add i64 %20, 1
  store i64 %21, ptr %19, align 8, !tbaa !134
  %22 = getelementptr inbounds nuw i8, ptr %18, i64 360
  %23 = tail call i32 @pthread_mutex_unlock(ptr noundef nonnull %22) #13
  %24 = load i8, ptr getelementptr inbounds nuw (i8, ptr @settings, i64 184), align 8, !tbaa !135, !range !37, !noundef !38
  %25 = trunc nuw i8 %24 to i1
  br i1 %25, label %27, label %26

26:                                               ; preds = %set_noreply_maybe.exit
  tail call void @out_string(ptr noundef nonnull %0, ptr noundef nonnull @.str.131) #13
  br label %44

27:                                               ; preds = %set_noreply_maybe.exit
  %28 = getelementptr inbounds nuw i8, ptr %0, i64 308
  %29 = load i8, ptr %28, align 4, !tbaa !39, !range !37, !noundef !38
  %30 = trunc nuw i8 %29 to i1
  %31 = select i1 %30, i64 3, i64 2
  %.not = icmp eq i64 %2, %31
  br i1 %.not, label %.thread, label %32

32:                                               ; preds = %27
  %33 = getelementptr inbounds nuw i8, ptr %1, i64 16
  %34 = load ptr, ptr %33, align 8, !tbaa !66
  %35 = call zeroext i1 @safe_strtol(ptr noundef %34, ptr noundef nonnull %4) #13
  br i1 %35, label %37, label %36

36:                                               ; preds = %32
  call void @out_string(ptr noundef nonnull %0, ptr noundef nonnull @.str.77) #13
  br label %44

37:                                               ; preds = %32
  %.pre = load i32, ptr %4, align 4, !tbaa !27
  %38 = icmp sgt i32 %.pre, 0
  br i1 %38, label %39, label %.thread

39:                                               ; preds = %37
  %40 = zext nneg i32 %.pre to i64
  %41 = call i32 @realtime(i64 noundef %40) #13
  br label %43

.thread:                                          ; preds = %27, %37
  %42 = load volatile i32, ptr @current_time, align 4, !tbaa !27
  br label %43

43:                                               ; preds = %.thread, %39
  %.0.in = phi i32 [ %41, %39 ], [ %42, %.thread ]
  %.0 = add i32 %.0.in, -1
  store i32 %.0, ptr getelementptr inbounds nuw (i8, ptr @settings, i64 36), align 4, !tbaa !136
  call void @item_flush_expired() #13
  call void @out_string(ptr noundef nonnull %0, ptr noundef nonnull @.str.98) #13
  br label %44

44:                                               ; preds = %43, %36, %26
  call void @llvm.lifetime.end.p0(i64 4, ptr nonnull %4) #13
  ret void
}